target datalayout = "e-m:e-p270:32:32-p271:32:32-p272:64:64-i64:64-i128:128-f80:128-n8:16:32:64-S128"
target triple = "x86_64-pc-linux-gnu"

%struct.translation_ctx_st = type { ptr, i32, i32, ptr, i32, i32, ptr, i64, ptr, ptr, [50 x i8], ptr, ptr, i64 }

@.str = private unnamed_addr constant [46 x i8] c"../openssl/crypto/evp/ctrl_params_translate.c\00", align 1
@__func__.fix_dh_nid5114 = private unnamed_addr constant [15 x i8] c"fix_dh_nid5114\00", align 1

; Function Attrs: inlinehint nounwind willreturn memory(read) uwtable
define available_externally i32 @atoi(ptr noundef nonnull %0) #8 {
  %2 = alloca ptr, align 8
  store ptr %0, ptr %2, align 8, !tbaa !50
  %3 = load ptr, ptr %2, align 8, !tbaa !50
  %4 = call i64 @strtol(ptr noundef %3, ptr noundef null, i32 noundef 10) #9
  %5 = trunc i64 %4 to i32
  ret i32 %5
}

; Function Attrs: nounwind uwtable
define internal i32 @fix_dh_nid5114(i32 noundef %0, ptr noundef %1, ptr noundef %2) #0 {
  %4 = alloca i32, align 4
  %5 = alloca i32, align 4
  %6 = alloca ptr, align 8
  %7 = alloca ptr, align 8
  %8 = alloca i32, align 4
  %9 = alloca i32, align 4
  store i32 %0, ptr %5, align 4, !tbaa !8
  store ptr %1, ptr %6, align 8, !tbaa !11
  store ptr %2, ptr %7, align 8, !tbaa !43
  call void @llvm.lifetime.start.p0(i64 4, ptr %8) #9
  %10 = load i32, ptr %5, align 4, !tbaa !8
  %11 = load ptr, ptr %6, align 8, !tbaa !11
  %12 = load ptr, ptr %7, align 8, !tbaa !43
  %13 = call i32 @default_check(i32 noundef %10, ptr noundef %11, ptr noundef %12)
  store i32 %13, ptr %8, align 4, !tbaa !8
  %14 = icmp sle i32 %13, 0
  br i1 %14, label %15, label %17

15:                                               ; preds = %3
  %16 = load i32, ptr %8, align 4, !tbaa !8
  store i32 %16, ptr %4, align 4
  store i32 1, ptr %9, align 4
  br label %64

17:                                               ; preds = %3
  %18 = load ptr, ptr %7, align 8, !tbaa !43
  %19 = getelementptr inbounds nuw %struct.translation_ctx_st, ptr %18, i32 0, i32 1
  %20 = load i32, ptr %19, align 8, !tbaa !35
  %21 = icmp ne i32 %20, 2
  br i1 %21, label %22, label %23

22:                                               ; preds = %17
  store i32 0, ptr %4, align 4
  store i32 1, ptr %9, align 4
  br label %64

23:                                               ; preds = %17
  %24 = load i32, ptr %5, align 4, !tbaa !8
  switch i32 %24, label %58 [
    i32 1, label %25
    i32 4, label %38
  ]

25:                                               ; preds = %23
  %26 = load ptr, ptr %7, align 8, !tbaa !43
  %27 = getelementptr inbounds nuw %struct.translation_ctx_st, ptr %26, i32 0, i32 5
  %28 = load i32, ptr %27, align 4, !tbaa !39
  %29 = call ptr @ossl_ffc_uid_to_dh_named_group(i32 noundef %28)
  %30 = call ptr @ossl_ffc_named_group_get_name(ptr noundef %29)
  %31 = load ptr, ptr %7, align 8, !tbaa !43
  %32 = getelementptr inbounds nuw %struct.translation_ctx_st, ptr %31, i32 0, i32 6
  store ptr %30, ptr %32, align 8, !tbaa !40
  %33 = icmp eq ptr %30, null
  br i1 %33, label %34, label %35

34:                                               ; preds = %25
  call void @ERR_new()
  call void @ERR_set_debug(ptr noundef @.str, i32 noundef 1035, ptr noundef @__func__.fix_dh_nid5114)
  call void (i32, i32, ptr, ...) @ERR_set_error(i32 noundef 6, i32 noundef 222, ptr noundef null)
  store i32 0, ptr %4, align 4
  store i32 1, ptr %9, align 4
  br label %64

35:                                               ; preds = %25
  %36 = load ptr, ptr %7, align 8, !tbaa !43
  %37 = getelementptr inbounds nuw %struct.translation_ctx_st, ptr %36, i32 0, i32 5
  store i32 0, ptr %37, align 4, !tbaa !39
  br label %59

38:                                               ; preds = %23
  %39 = load ptr, ptr %7, align 8, !tbaa !43
  %40 = getelementptr inbounds nuw %struct.translation_ctx_st, ptr %39, i32 0, i32 6
  %41 = load ptr, ptr %40, align 8, !tbaa !40
  %42 = icmp eq ptr %41, null
  br i1 %42, label %43, label %44

43:                                               ; preds = %38
  store i32 0, ptr %4, align 4
  store i32 1, ptr %9, align 4
  br label %64

44:                                               ; preds = %38
  %45 = load ptr, ptr %7, align 8, !tbaa !43
  %46 = getelementptr inbounds nuw %struct.translation_ctx_st, ptr %45, i32 0, i32 6
  %47 = load ptr, ptr %46, align 8, !tbaa !40
  %48 = call i32 @atoi(ptr noundef %47) #10
  %49 = call ptr @ossl_ffc_uid_to_dh_named_group(i32 noundef %48)
  %50 = call ptr @ossl_ffc_named_group_get_name(ptr noundef %49)
  %51 = load ptr, ptr %7, align 8, !tbaa !43
  %52 = getelementptr inbounds nuw %struct.translation_ctx_st, ptr %51, i32 0, i32 6
  store ptr %50, ptr %52, align 8, !tbaa !40
  %53 = icmp eq ptr %50, null
  br i1 %53, label %54, label %55

54:                                               ; preds = %44
  call void @ERR_new()
  call void @ERR_set_debug(ptr noundef @.str, i32 noundef 1047, ptr noundef @__func__.fix_dh_nid5114)
  call void (i32, i32, ptr, ...) @ERR_set_error(i32 noundef 6, i32 noundef 222, ptr noundef null)
  store i32 0, ptr %4, align 4
  store i32 1, ptr %9, align 4
  br label %64

55:                                               ; preds = %44
  %56 = load ptr, ptr %7, align 8, !tbaa !43
  %57 = getelementptr inbounds nuw %struct.translation_ctx_st, ptr %56, i32 0, i32 5
  store i32 0, ptr %57, align 4, !tbaa !39
  br label %59

58:                                               ; preds = %23
  br label %59

59:                                               ; preds = %58, %55, %35
  %60 = load i32, ptr %5, align 4, !tbaa !8
  %61 = load ptr, ptr %6, align 8, !tbaa !11
  %62 = load ptr, ptr %7, align 8, !tbaa !43
  %63 = call i32 @default_fixup_args(i32 noundef %60, ptr noundef %61, ptr noundef %62)
  store i32 %63, ptr %4, align 4
  store i32 1, ptr %9, align 4
  br label %64

64:                                               ; preds = %59, %54, %43, %34, %22, %15
  call void @llvm.lifetime.end.p0(i64 4, ptr %8) #9
  %65 = load i32, ptr %4, align 4
  ret i32 %65
}