; Function Attrs: nounwind uwtable
define internal i32 @fix_dh_nid5114(i32 noundef %0, ptr noundef captures(address_is_null) %1, ptr noundef %2) #0 {
  %4 = tail call fastcc i32 @default_check(i32 noundef %0, ptr noundef %1)
  %5 = icmp slt i32 %4, 1
  br i1 %5, label %34, label %6

6:                                                ; preds = %3
  %7 = getelementptr inbounds nuw i8, ptr %2, i64 8
  %8 = load i32, ptr %7, align 8, !tbaa !29
  %.not = icmp eq i32 %8, 2
  br i1 %.not, label %9, label %34

9:                                                ; preds = %6
  switch i32 %0, label %32 [
    i32 1, label %10
    i32 4, label %19
  ]

10:                                               ; preds = %9
  %11 = getelementptr inbounds nuw i8, ptr %2, i64 28
  %12 = load i32, ptr %11, align 4, !tbaa !34
  %13 = tail call ptr @ossl_ffc_uid_to_dh_named_group(i32 noundef %12) #8
  %14 = tail call ptr @ossl_ffc_named_group_get_name(ptr noundef %13) #8
  %15 = getelementptr inbounds nuw i8, ptr %2, i64 32
  store ptr %14, ptr %15, align 8, !tbaa !35
  %16 = icmp eq ptr %14, null
  br i1 %16, label %17, label %18

17:                                               ; preds = %10
  tail call void @ERR_new() #8
  tail call void @ERR_set_debug(ptr noundef nonnull @.str, i32 noundef 1035, ptr noundef nonnull @__func__.fix_dh_nid5114) #8
  tail call void (i32, i32, ptr, ...) @ERR_set_error(i32 noundef 6, i32 noundef 222, ptr noundef null) #8
  br label %34

18:                                               ; preds = %10
  store i32 0, ptr %11, align 4, !tbaa !34
  br label %32

19:                                               ; preds = %9
  %20 = getelementptr inbounds nuw i8, ptr %2, i64 32
  %21 = load ptr, ptr %20, align 8, !tbaa !35
  %22 = icmp eq ptr %21, null
  br i1 %22, label %34, label %23

23:                                               ; preds = %19
  %24 = tail call i64 @strtol(ptr noundef nonnull captures(none) %21, ptr noundef null, i32 noundef 10) #8
  %25 = trunc i64 %24 to i32
  %26 = tail call ptr @ossl_ffc_uid_to_dh_named_group(i32 noundef %25) #8
  %27 = tail call ptr @ossl_ffc_named_group_get_name(ptr noundef %26) #8
  store ptr %27, ptr %20, align 8, !tbaa !35
  %28 = icmp eq ptr %27, null
  br i1 %28, label %29, label %30

29:                                               ; preds = %23
  tail call void @ERR_new() #8
  tail call void @ERR_set_debug(ptr noundef nonnull @.str, i32 noundef 1047, ptr noundef nonnull @__func__.fix_dh_nid5114) #8
  tail call void (i32, i32, ptr, ...) @ERR_set_error(i32 noundef 6, i32 noundef 222, ptr noundef null) #8
  br label %34

30:                                               ; preds = %23
  %31 = getelementptr inbounds nuw i8, ptr %2, i64 28
  store i32 0, ptr %31, align 4, !tbaa !34
  br label %32

32:                                               ; preds = %9, %30, %18
  %33 = tail call i32 @default_fixup_args(i32 noundef %0, ptr noundef %1, ptr noundef nonnull %2)
  br label %34

34:                                               ; preds = %19, %6, %3, %32, %29, %17
  %.0 = phi i32 [ %33, %32 ], [ 0, %29 ], [ 0, %17 ], [ %4, %3 ], [ 0, %6 ], [ 0, %19 ]
  ret i32 %.0
}